target datalayout = "e-m:e-p270:32:32-p271:32:32-p272:64:64-i64:64-i128:128-f80:128-n8:16:32:64-S128"
target triple = "x86_64-pc-linux-gnu"

%class.GPUShader = type <{ %"class.std::__cxx11::basic_string", i32, i32, i8, i8, [6 x i8] }>
%"class.std::__cxx11::basic_string" = type { %"struct.std::__cxx11::basic_string<char>::_Alloc_hider", i64, %union.anon }
%"struct.std::__cxx11::basic_string<char>::_Alloc_hider" = type { ptr }
%union.anon = type { i64, [8 x i8] }

@__glewCompileShader = external global ptr, align 8

; Function Attrs: mustprogress uwtable
define noundef zeroext i1 @_ZN9GPUShader7compileEv(ptr noundef nonnull align 8 dereferenceable(42) %0) #4 align 2 {
  %2 = alloca ptr, align 8
  store ptr %0, ptr %2, align 8
  %3 = load ptr, ptr %2, align 8
  %4 = load ptr, ptr @__glewCompileShader, align 8
  %5 = getelementptr inbounds %class.GPUShader, ptr %3, i32 0, i32 2
  %6 = load i32, ptr %5, align 4
  call void %4(i32 noundef %6)
  %7 = getelementptr inbounds %class.GPUShader, ptr %3, i32 0, i32 3
  %8 = load i8, ptr %7, align 8
  %9 = trunc i8 %8 to i1
  br i1 %9, label %10, label %11

10:                                               ; preds = %1
  call void @_ZN9GPUShader12printInfoLogEv(ptr noundef nonnull align 8 dereferenceable(42) %3)
  br label %11

11:                                               ; preds = %10, %1
  ret i1 true
}

; Function Attrs: mustprogress uwtable
define noundef zeroext i1 @_ZN9GPUShader14loadAndCompileEv(ptr noundef nonnull align 8 dereferenceable(42) %0) #4 align 2 {
  %2 = alloca ptr, align 8
  store ptr %0, ptr %2, align 8
  %3 = load ptr, ptr %2, align 8
  %4 = getelementptr inbounds %class.GPUShader, ptr %3, i32 0, i32 4
  %5 = load i8, ptr %4, align 1
  %6 = trunc i8 %5 to i1
  br i1 %6, label %7, label %11

7:                                                ; preds = %1
  %8 = call noundef zeroext i1 @_ZN9GPUShader4loadEv(ptr noundef nonnull align 8 dereferenceable(42) %3)
  br i1 %8, label %9, label %11

9:                                                ; preds = %7
  %10 = call noundef zeroext i1 @_ZN9GPUShader7compileEv(ptr noundef nonnull align 8 dereferenceable(42) %3)
  br label %11

11:                                               ; preds = %9, %7, %1
  %12 = phi i1 [ false, %7 ], [ false, %1 ], [ %10, %9 ]
  ret i1 %12
}

; Function Attrs: mustprogress uwtable
define void @_ZN9GPUShaderC2E11SHADER_TYPERKNSt7__cxx1112basic_stringIcSt11char_traitsIcESaIcEEEb(ptr noundef nonnull align 8 dereferenceable(42) %0, i32 noundef %1, ptr noundef nonnull align 8 dereferenceable(32) %2, i1 noundef zeroext %3) unnamed_addr #4 align 2 personality ptr @__gxx_personality_v0 {
  %5 = alloca ptr, align 8
  %6 = alloca i32, align 4
  %7 = alloca ptr, align 8
  %8 = alloca i8, align 1
  %9 = alloca ptr, align 8
  %10 = alloca i32, align 4
  store ptr %0, ptr %5, align 8
  store i32 %1, ptr %6, align 4
  store ptr %2, ptr %7, align 8
  %11 = zext i1 %3 to i8
  store i8 %11, ptr %8, align 1
  %12 = load ptr, ptr %5, align 8
  %13 = getelementptr inbounds %class.GPUShader, ptr %12, i32 0, i32 0
  %14 = load ptr, ptr %7, align 8
  call void @_ZNSt7__cxx1112basic_stringIcSt11char_traitsIcESaIcEEC1ERKS4_(ptr noundef nonnull align 8 dereferenceable(32) %13, ptr noundef nonnull align 8 dereferenceable(32) %14)
  %15 = getelementptr inbounds %class.GPUShader, ptr %12, i32 0, i32 1
  %16 = load i32, ptr %6, align 4
  store i32 %16, ptr %15, align 8
  %17 = getelementptr inbounds %class.GPUShader, ptr %12, i32 0, i32 2
  store i32 0, ptr %17, align 4
  %18 = getelementptr inbounds %class.GPUShader, ptr %12, i32 0, i32 3
  %19 = load i8, ptr %8, align 1
  %20 = trunc i8 %19 to i1
  %21 = zext i1 %20 to i8
  store i8 %21, ptr %18, align 8
  %22 = invoke noundef zeroext i1 @_ZN9GPUShader12createShaderEv(ptr noundef nonnull align 8 dereferenceable(42) %12)
          to label %23 unwind label %28

23:                                               ; preds = %4
  %24 = getelementptr inbounds %class.GPUShader, ptr %12, i32 0, i32 4
  %25 = zext i1 %22 to i8
  store i8 %25, ptr %24, align 1
  %26 = invoke noundef zeroext i1 @_ZN9GPUShader14loadAndCompileEv(ptr noundef nonnull align 8 dereferenceable(42) %12)
          to label %27 unwind label %28

27:                                               ; preds = %23
  ret void

28:                                               ; preds = %23, %4
  %29 = landingpad { ptr, i32 }
          cleanup
  %30 = extractvalue { ptr, i32 } %29, 0
  store ptr %30, ptr %9, align 8
  %31 = extractvalue { ptr, i32 } %29, 1
  store i32 %31, ptr %10, align 4
  call void @_ZNSt7__cxx1112basic_stringIcSt11char_traitsIcESaIcEED1Ev(ptr noundef nonnull align 8 dereferenceable(32) %13) #3
  br label %32

32:                                               ; preds = %28
  %33 = load ptr, ptr %9, align 8
  %34 = load i32, ptr %10, align 4
  %35 = insertvalue { ptr, i32 } poison, ptr %33, 0
  %36 = insertvalue { ptr, i32 } %35, i32 %34, 1
  resume { ptr, i32 } %36
}