; Function Attrs: mustprogress uwtable
define void @_ZN9GPUShaderC2E11SHADER_TYPERKNSt7__cxx1112basic_stringIcSt11char_traitsIcESaIcEEEb(ptr noundef nonnull align 8 dereferenceable(42) %0, i32 noundef %1, ptr noundef nonnull align 8 dereferenceable(32) %2, i1 noundef zeroext %3) unnamed_addr #3 align 2 personality ptr @__gxx_personality_v0 {
  %5 = zext i1 %3 to i8
  tail call void @_ZNSt7__cxx1112basic_stringIcSt11char_traitsIcESaIcEEC1ERKS4_(ptr noundef nonnull align 8 dereferenceable(32) %0, ptr noundef nonnull align 8 dereferenceable(32) %2)
  %6 = getelementptr inbounds nuw i8, ptr %0, i64 32
  store i32 %1, ptr %6, align 8
  %7 = getelementptr inbounds nuw i8, ptr %0, i64 36
  store i32 0, ptr %7, align 4
  %8 = getelementptr inbounds nuw i8, ptr %0, i64 40
  store i8 %5, ptr %8, align 8
  %9 = invoke noundef zeroext i1 @_ZN9GPUShader12createShaderEv(ptr noundef nonnull align 8 dereferenceable(42) %0)
          to label %10 unwind label %21

10:                                               ; preds = %4
  %11 = getelementptr inbounds nuw i8, ptr %0, i64 41
  %12 = zext i1 %9 to i8
  store i8 %12, ptr %11, align 1
  br i1 %9, label %13, label %_ZN9GPUShader14loadAndCompileEv.exit

13:                                               ; preds = %10
  %14 = invoke noundef zeroext i1 @_ZN9GPUShader4loadEv(ptr noundef nonnull align 8 dereferenceable(42) %0)
          to label %.noexc unwind label %21

.noexc:                                           ; preds = %13
  br i1 %14, label %15, label %_ZN9GPUShader14loadAndCompileEv.exit

15:                                               ; preds = %.noexc
  %16 = load ptr, ptr @__glewCompileShader, align 8
  %17 = load i32, ptr %7, align 4
  invoke void %16(i32 noundef %17)
          to label %.noexc5 unwind label %21

.noexc5:                                          ; preds = %15
  %18 = load i8, ptr %8, align 8
  %19 = trunc i8 %18 to i1
  br i1 %19, label %20, label %_ZN9GPUShader14loadAndCompileEv.exit

20:                                               ; preds = %.noexc5
  invoke void @_ZN9GPUShader12printInfoLogEv(ptr noundef nonnull align 8 dereferenceable(42) %0)
          to label %_ZN9GPUShader14loadAndCompileEv.exit unwind label %21

_ZN9GPUShader14loadAndCompileEv.exit:             ; preds = %.noexc5, %.noexc, %10, %20
  ret void

21:                                               ; preds = %20, %15, %13, %4
  %22 = landingpad { ptr, i32 }
          cleanup
  tail call void @_ZNSt7__cxx1112basic_stringIcSt11char_traitsIcESaIcEED1Ev(ptr noundef nonnull align 8 dereferenceable(32) %0) #13
  resume { ptr, i32 } %22
}